(dp1
S'dim'
p2
I1000
sS'optimizer'
p3
S'adam'
p4
sS'validFreq'
p5
I10
sS'reload_'
p6
I00
sS'dim_im'
p7
I1000
sS'batch_size'
p8
I100
sS'saveFreq'
p9
I500
sS'saveto'
p10
S'mod.npz'
p11
sS'ncon'
p12
I50
sS'lrate'
p13
F0.01
sS'max_epochs'
p14
I15
sS'dispFreq'
p15
I10
sS'margin'
p16
F0.20000000000000001
sS'dim_s'
p17
I4800
sS'valid_batch_size'
p18
I100
s.